target datalayout = "e-m:e-p270:32:32-p271:32:32-p272:64:64-i64:64-i128:128-f80:128-n8:16:32:64-S128"
target triple = "x86_64-pc-linux-gnu"

@.str.11 = private unnamed_addr constant [29 x i8] c"Out of memory? fdopen failed\00", align 1

; Function Attrs: nounwind uwtable
define dso_local ptr @xfdopen(i32 noundef %0, ptr noundef %1) #0 {
  %3 = alloca i32, align 4
  %4 = alloca ptr, align 8
  %5 = alloca ptr, align 8
  store i32 %0, ptr %3, align 4, !tbaa !11
  store ptr %1, ptr %4, align 8, !tbaa !4
  call void @llvm.lifetime.start.p0(i64 8, ptr %5) #13
  %6 = load i32, ptr %3, align 4, !tbaa !11
  %7 = load ptr, ptr %4, align 8, !tbaa !4
  %8 = call noalias ptr @fdopen(i32 noundef %6, ptr noundef %7) #13
  store ptr %8, ptr %5, align 8, !tbaa !24
  %9 = load ptr, ptr %5, align 8, !tbaa !24
  %10 = icmp ne ptr %9, null
  br i1 %10, label %12, label %11

11:                                               ; preds = %2
  call void (ptr, ...) @die_errno(ptr noundef @.str.11) #14
  unreachable

12:                                               ; preds = %2
  %13 = load ptr, ptr %5, align 8, !tbaa !24
  call void @llvm.lifetime.end.p0(i64 8, ptr %5) #13
  ret ptr %13
}