; Function Attrs: nounwind uwtable
define dso_local noalias nonnull ptr @xfdopen(i32 noundef %0, ptr noundef readonly captures(none) %1) local_unnamed_addr #0 {
  %3 = tail call noalias ptr @fdopen(i32 noundef %0, ptr noundef %1) #20
  %.not = icmp eq ptr %3, null
  br i1 %.not, label %4, label %5

4:                                                ; preds = %2
  tail call void (ptr, ...) @die_errno(ptr noundef nonnull @.str.11) #21
  unreachable

5:                                                ; preds = %2
  ret ptr %3
}